target datalayout = "e-m:e-p270:32:32-p271:32:32-p272:64:64-i64:64-i128:128-f80:128-n8:16:32:64-S128"
target triple = "x86_64-pc-linux-gnu"

%struct.hf_register_info = type { ptr, %struct._header_field_info }
%struct._header_field_info = type { ptr, ptr, i32, i32, ptr, i64, ptr, i32, i32, i32, i32, ptr }
%struct._attribute_type_t = type { ptr, ptr }

@proto_ldap = internal global i32 0, align 4
@attribute_types = internal global ptr null, align 8
@num_attribute_types = internal global i32 0, align 4
@attribute_types_hash = internal global ptr null, align 8
@dynamic_hf = internal global ptr null, align 8
@dynamic_hf_size = internal global i32 0, align 4
@.str.951 = private unnamed_addr constant [23 x i8] c"ldap.AttributeValue.%s\00", align 1

; Function Attrs: null_pointer_is_valid sspstrong uwtable
define internal void @deregister_attribute_types() #0 {
  %1 = alloca i32, align 4
  %2 = load ptr, ptr @dynamic_hf, align 8
  %3 = icmp ne ptr %2, null
  br i1 %3, label %4, label %30

4:                                                ; preds = %0
  call void @llvm.lifetime.start.p0(i64 4, ptr %1) #16
  store i32 0, ptr %1, align 4
  br label %5

5:                                                ; preds = %25, %4
  %6 = load i32, ptr %1, align 4
  %7 = load i32, ptr @dynamic_hf_size, align 4
  %8 = icmp ult i32 %6, %7
  br i1 %8, label %10, label %9

9:                                                ; preds = %5
  call void @llvm.lifetime.end.p0(i64 4, ptr %1) #16
  br label %28

10:                                               ; preds = %5
  %11 = load i32, ptr @proto_ldap, align 4
  %12 = load ptr, ptr @dynamic_hf, align 8
  %13 = load i32, ptr %1, align 4
  %14 = zext i32 %13 to i64
  %15 = getelementptr %struct.hf_register_info, ptr %12, i64 %14
  %16 = getelementptr inbounds nuw %struct.hf_register_info, ptr %15, i32 0, i32 0
  %17 = load ptr, ptr %16, align 8
  %18 = load i32, ptr %17, align 4
  call void @proto_deregister_field(i32 noundef %11, i32 noundef %18)
  %19 = load ptr, ptr @dynamic_hf, align 8
  %20 = load i32, ptr %1, align 4
  %21 = zext i32 %20 to i64
  %22 = getelementptr %struct.hf_register_info, ptr %19, i64 %21
  %23 = getelementptr inbounds nuw %struct.hf_register_info, ptr %22, i32 0, i32 0
  %24 = load ptr, ptr %23, align 8
  call void @g_free(ptr noundef %24)
  br label %25

25:                                               ; preds = %10
  %26 = load i32, ptr %1, align 4
  %27 = add i32 %26, 1
  store i32 %27, ptr %1, align 4
  br label %5, !llvm.loop !11

28:                                               ; preds = %9
  %29 = load ptr, ptr @dynamic_hf, align 8
  call void @proto_add_deregistered_data(ptr noundef %29)
  store ptr null, ptr @dynamic_hf, align 8
  store i32 0, ptr @dynamic_hf_size, align 4
  br label %30

30:                                               ; preds = %28, %0
  %31 = load ptr, ptr @attribute_types_hash, align 8
  %32 = icmp ne ptr %31, null
  br i1 %32, label %33, label %35

33:                                               ; preds = %30
  %34 = load ptr, ptr @attribute_types_hash, align 8
  call void @g_hash_table_destroy(ptr noundef %34)
  store ptr null, ptr @attribute_types_hash, align 8
  br label %35

35:                                               ; preds = %33, %30
  ret void
}

; Function Attrs: null_pointer_is_valid sspstrong uwtable
define internal void @attribute_types_post_update_cb() #0 {
  %1 = alloca ptr, align 8
  %2 = alloca ptr, align 8
  %3 = alloca i64, align 8
  %4 = alloca i64, align 8
  %5 = alloca ptr, align 8
  %6 = alloca ptr, align 8
  %7 = alloca i32, align 4
  %8 = alloca i64, align 8
  %9 = alloca i64, align 8
  %10 = alloca ptr, align 8
  %11 = alloca ptr, align 8
  call void @llvm.lifetime.start.p0(i64 8, ptr %1) #16
  call void @llvm.lifetime.start.p0(i64 8, ptr %2) #16
  call void @deregister_attribute_types()
  %12 = load i32, ptr @num_attribute_types, align 4
  %13 = icmp ne i32 %12, 0
  br i1 %13, label %14, label %190

14:                                               ; preds = %0
  %15 = call ptr @g_hash_table_new(ptr noundef @g_str_hash, ptr noundef @g_str_equal)
  store ptr %15, ptr @attribute_types_hash, align 8
  call void @llvm.lifetime.start.p0(i64 8, ptr %3) #16
  %16 = load i32, ptr @num_attribute_types, align 4
  %17 = zext i32 %16 to i64
  store i64 %17, ptr %3, align 8
  call void @llvm.lifetime.start.p0(i64 8, ptr %4) #16
  store i64 80, ptr %4, align 8
  call void @llvm.lifetime.start.p0(i64 8, ptr %5) #16
  %18 = load i64, ptr %4, align 8
  %19 = icmp eq i64 %18, 1
  br i1 %19, label %20, label %23

20:                                               ; preds = %14
  %21 = load i64, ptr %3, align 8
  %22 = call noalias ptr @g_malloc0(i64 noundef %21) #18
  store ptr %22, ptr %5, align 8
  br label %44

23:                                               ; preds = %14
  %24 = load i64, ptr %3, align 8
  %25 = call i1 @llvm.is.constant.i64(i64 %24)
  br i1 %25, label %26, label %39

26:                                               ; preds = %23
  %27 = load i64, ptr %4, align 8
  %28 = icmp eq i64 %27, 0
  br i1 %28, label %34, label %29

29:                                               ; preds = %26
  %30 = load i64, ptr %3, align 8
  %31 = load i64, ptr %4, align 8
  %32 = udiv i64 -1, %31
  %33 = icmp ule i64 %30, %32
  br i1 %33, label %34, label %39

34:                                               ; preds = %29, %26
  %35 = load i64, ptr %3, align 8
  %36 = load i64, ptr %4, align 8
  %37 = mul i64 %35, %36
  %38 = call noalias ptr @g_malloc0(i64 noundef %37) #18
  store ptr %38, ptr %5, align 8
  br label %43

39:                                               ; preds = %29, %23
  %40 = load i64, ptr %3, align 8
  %41 = load i64, ptr %4, align 8
  %42 = call noalias ptr @g_malloc0_n(i64 noundef %40, i64 noundef %41) #19
  store ptr %42, ptr %5, align 8
  br label %43

43:                                               ; preds = %39, %34
  br label %44

44:                                               ; preds = %43, %20
  %45 = load ptr, ptr %5, align 8
  store ptr %45, ptr %6, align 8
  call void @llvm.lifetime.end.p0(i64 8, ptr %5) #16
  call void @llvm.lifetime.end.p0(i64 8, ptr %4) #16
  call void @llvm.lifetime.end.p0(i64 8, ptr %3) #16
  %46 = load ptr, ptr %6, align 8
  store ptr %46, ptr @dynamic_hf, align 8
  %47 = load i32, ptr @num_attribute_types, align 4
  store i32 %47, ptr @dynamic_hf_size, align 4
  call void @llvm.lifetime.start.p0(i64 4, ptr %7) #16
  store i32 0, ptr %7, align 4
  br label %48

48:                                               ; preds = %183, %44
  %49 = load i32, ptr %7, align 4
  %50 = load i32, ptr @dynamic_hf_size, align 4
  %51 = icmp ult i32 %49, %50
  br i1 %51, label %53, label %52

52:                                               ; preds = %48
  call void @llvm.lifetime.end.p0(i64 4, ptr %7) #16
  br label %186

53:                                               ; preds = %48
  call void @llvm.lifetime.start.p0(i64 8, ptr %8) #16
  store i64 1, ptr %8, align 8
  call void @llvm.lifetime.start.p0(i64 8, ptr %9) #16
  store i64 4, ptr %9, align 8
  call void @llvm.lifetime.start.p0(i64 8, ptr %10) #16
  %54 = load i64, ptr %9, align 8
  %55 = icmp eq i64 %54, 1
  br i1 %55, label %56, label %59

56:                                               ; preds = %53
  %57 = load i64, ptr %8, align 8
  %58 = call noalias ptr @g_malloc(i64 noundef %57) #18
  store ptr %58, ptr %10, align 8
  br label %80

59:                                               ; preds = %53
  %60 = load i64, ptr %8, align 8
  %61 = call i1 @llvm.is.constant.i64(i64 %60)
  br i1 %61, label %62, label %75

62:                                               ; preds = %59
  %63 = load i64, ptr %9, align 8
  %64 = icmp eq i64 %63, 0
  br i1 %64, label %70, label %65

65:                                               ; preds = %62
  %66 = load i64, ptr %8, align 8
  %67 = load i64, ptr %9, align 8
  %68 = udiv i64 -1, %67
  %69 = icmp ule i64 %66, %68
  br i1 %69, label %70, label %75

70:                                               ; preds = %65, %62
  %71 = load i64, ptr %8, align 8
  %72 = load i64, ptr %9, align 8
  %73 = mul i64 %71, %72
  %74 = call noalias ptr @g_malloc(i64 noundef %73) #18
  store ptr %74, ptr %10, align 8
  br label %79

75:                                               ; preds = %65, %59
  %76 = load i64, ptr %8, align 8
  %77 = load i64, ptr %9, align 8
  %78 = call noalias ptr @g_malloc_n(i64 noundef %76, i64 noundef %77) #19
  store ptr %78, ptr %10, align 8
  br label %79

79:                                               ; preds = %75, %70
  br label %80

80:                                               ; preds = %79, %56
  %81 = load ptr, ptr %10, align 8
  store ptr %81, ptr %11, align 8
  call void @llvm.lifetime.end.p0(i64 8, ptr %10) #16
  call void @llvm.lifetime.end.p0(i64 8, ptr %9) #16
  call void @llvm.lifetime.end.p0(i64 8, ptr %8) #16
  %82 = load ptr, ptr %11, align 8
  store ptr %82, ptr %1, align 8
  %83 = load ptr, ptr %1, align 8
  store i32 -1, ptr %83, align 4
  %84 = load ptr, ptr @attribute_types, align 8
  %85 = load i32, ptr %7, align 4
  %86 = zext i32 %85 to i64
  %87 = getelementptr %struct._attribute_type_t, ptr %84, i64 %86
  %88 = getelementptr inbounds nuw %struct._attribute_type_t, ptr %87, i32 0, i32 0
  %89 = load ptr, ptr %88, align 8
  %90 = call noalias ptr @g_strdup(ptr noundef %89)
  store ptr %90, ptr %2, align 8
  %91 = load ptr, ptr %1, align 8
  %92 = load ptr, ptr @dynamic_hf, align 8
  %93 = load i32, ptr %7, align 4
  %94 = zext i32 %93 to i64
  %95 = getelementptr %struct.hf_register_info, ptr %92, i64 %94
  %96 = getelementptr inbounds nuw %struct.hf_register_info, ptr %95, i32 0, i32 0
  store ptr %91, ptr %96, align 8
  %97 = load ptr, ptr %2, align 8
  %98 = load ptr, ptr @dynamic_hf, align 8
  %99 = load i32, ptr %7, align 4
  %100 = zext i32 %99 to i64
  %101 = getelementptr %struct.hf_register_info, ptr %98, i64 %100
  %102 = getelementptr inbounds nuw %struct.hf_register_info, ptr %101, i32 0, i32 1
  %103 = getelementptr inbounds nuw %struct._header_field_info, ptr %102, i32 0, i32 0
  store ptr %97, ptr %103, align 8
  %104 = load ptr, ptr %2, align 8
  %105 = call noalias ptr (ptr, ptr, ...) @wmem_strdup_printf(ptr noundef null, ptr noundef @.str.951, ptr noundef %104)
  %106 = load ptr, ptr @dynamic_hf, align 8
  %107 = load i32, ptr %7, align 4
  %108 = zext i32 %107 to i64
  %109 = getelementptr %struct.hf_register_info, ptr %106, i64 %108
  %110 = getelementptr inbounds nuw %struct.hf_register_info, ptr %109, i32 0, i32 1
  %111 = getelementptr inbounds nuw %struct._header_field_info, ptr %110, i32 0, i32 1
  store ptr %105, ptr %111, align 8
  %112 = load ptr, ptr @dynamic_hf, align 8
  %113 = load i32, ptr %7, align 4
  %114 = zext i32 %113 to i64
  %115 = getelementptr %struct.hf_register_info, ptr %112, i64 %114
  %116 = getelementptr inbounds nuw %struct.hf_register_info, ptr %115, i32 0, i32 1
  %117 = getelementptr inbounds nuw %struct._header_field_info, ptr %116, i32 0, i32 2
  store i32 26, ptr %117, align 8
  %118 = load ptr, ptr @dynamic_hf, align 8
  %119 = load i32, ptr %7, align 4
  %120 = zext i32 %119 to i64
  %121 = getelementptr %struct.hf_register_info, ptr %118, i64 %120
  %122 = getelementptr inbounds nuw %struct.hf_register_info, ptr %121, i32 0, i32 1
  %123 = getelementptr inbounds nuw %struct._header_field_info, ptr %122, i32 0, i32 3
  store i32 0, ptr %123, align 4
  %124 = load ptr, ptr @dynamic_hf, align 8
  %125 = load i32, ptr %7, align 4
  %126 = zext i32 %125 to i64
  %127 = getelementptr %struct.hf_register_info, ptr %124, i64 %126
  %128 = getelementptr inbounds nuw %struct.hf_register_info, ptr %127, i32 0, i32 1
  %129 = getelementptr inbounds nuw %struct._header_field_info, ptr %128, i32 0, i32 4
  store ptr null, ptr %129, align 8
  %130 = load ptr, ptr @dynamic_hf, align 8
  %131 = load i32, ptr %7, align 4
  %132 = zext i32 %131 to i64
  %133 = getelementptr %struct.hf_register_info, ptr %130, i64 %132
  %134 = getelementptr inbounds nuw %struct.hf_register_info, ptr %133, i32 0, i32 1
  %135 = getelementptr inbounds nuw %struct._header_field_info, ptr %134, i32 0, i32 5
  store i64 0, ptr %135, align 8
  %136 = load ptr, ptr @attribute_types, align 8
  %137 = load i32, ptr %7, align 4
  %138 = zext i32 %137 to i64
  %139 = getelementptr %struct._attribute_type_t, ptr %136, i64 %138
  %140 = getelementptr inbounds nuw %struct._attribute_type_t, ptr %139, i32 0, i32 1
  %141 = load ptr, ptr %140, align 8
  %142 = call noalias ptr @g_strdup(ptr noundef %141)
  %143 = load ptr, ptr @dynamic_hf, align 8
  %144 = load i32, ptr %7, align 4
  %145 = zext i32 %144 to i64
  %146 = getelementptr %struct.hf_register_info, ptr %143, i64 %145
  %147 = getelementptr inbounds nuw %struct.hf_register_info, ptr %146, i32 0, i32 1
  %148 = getelementptr inbounds nuw %struct._header_field_info, ptr %147, i32 0, i32 6
  store ptr %142, ptr %148, align 8
  %149 = load ptr, ptr @dynamic_hf, align 8
  %150 = load i32, ptr %7, align 4
  %151 = zext i32 %150 to i64
  %152 = getelementptr %struct.hf_register_info, ptr %149, i64 %151
  %153 = getelementptr inbounds nuw %struct.hf_register_info, ptr %152, i32 0, i32 1
  %154 = getelementptr inbounds nuw %struct._header_field_info, ptr %153, i32 0, i32 7
  store i32 -1, ptr %154, align 8
  %155 = load ptr, ptr @dynamic_hf, align 8
  %156 = load i32, ptr %7, align 4
  %157 = zext i32 %156 to i64
  %158 = getelementptr %struct.hf_register_info, ptr %155, i64 %157
  %159 = getelementptr inbounds nuw %struct.hf_register_info, ptr %158, i32 0, i32 1
  %160 = getelementptr inbounds nuw %struct._header_field_info, ptr %159, i32 0, i32 8
  store i32 0, ptr %160, align 4
  %161 = load ptr, ptr @dynamic_hf, align 8
  %162 = load i32, ptr %7, align 4
  %163 = zext i32 %162 to i64
  %164 = getelementptr %struct.hf_register_info, ptr %161, i64 %163
  %165 = getelementptr inbounds nuw %struct.hf_register_info, ptr %164, i32 0, i32 1
  %166 = getelementptr inbounds nuw %struct._header_field_info, ptr %165, i32 0, i32 9
  store i32 0, ptr %166, align 8
  %167 = load ptr, ptr @dynamic_hf, align 8
  %168 = load i32, ptr %7, align 4
  %169 = zext i32 %168 to i64
  %170 = getelementptr %struct.hf_register_info, ptr %167, i64 %169
  %171 = getelementptr inbounds nuw %struct.hf_register_info, ptr %170, i32 0, i32 1
  %172 = getelementptr inbounds nuw %struct._header_field_info, ptr %171, i32 0, i32 10
  store i32 -1, ptr %172, align 4
  %173 = load ptr, ptr @dynamic_hf, align 8
  %174 = load i32, ptr %7, align 4
  %175 = zext i32 %174 to i64
  %176 = getelementptr %struct.hf_register_info, ptr %173, i64 %175
  %177 = getelementptr inbounds nuw %struct.hf_register_info, ptr %176, i32 0, i32 1
  %178 = getelementptr inbounds nuw %struct._header_field_info, ptr %177, i32 0, i32 11
  store ptr null, ptr %178, align 8
  %179 = load ptr, ptr @attribute_types_hash, align 8
  %180 = load ptr, ptr %2, align 8
  %181 = load ptr, ptr %1, align 8
  %182 = call i32 @g_hash_table_insert(ptr noundef %179, ptr noundef %180, ptr noundef %181)
  br label %183

183:                                              ; preds = %80
  %184 = load i32, ptr %7, align 4
  %185 = add i32 %184, 1
  store i32 %185, ptr %7, align 4
  br label %48, !llvm.loop !8

186:                                              ; preds = %52
  %187 = load i32, ptr @proto_ldap, align 4
  %188 = load ptr, ptr @dynamic_hf, align 8
  %189 = load i32, ptr @dynamic_hf_size, align 4
  call void @proto_register_field_array(i32 noundef %187, ptr noundef %188, i32 noundef %189)
  br label %190

190:                                              ; preds = %186, %0
  call void @llvm.lifetime.end.p0(i64 8, ptr %2) #16
  call void @llvm.lifetime.end.p0(i64 8, ptr %1) #16
  ret void
}