; Function Attrs: null_pointer_is_valid sspstrong uwtable
define internal void @attribute_types_post_update_cb() #0 {
  %1 = load ptr, ptr @dynamic_hf, align 8
  %.not.i = icmp eq ptr %1, null
  br i1 %.not.i, label %15, label %.preheader.i

.preheader.i:                                     ; preds = %0
  %2 = load i32, ptr @dynamic_hf_size, align 4
  %.not7.i = icmp eq i32 %2, 0
  br i1 %.not7.i, label %._crit_edge.i, label %.lr.ph.i

._crit_edge.loopexit.i:                           ; preds = %.lr.ph.i
  %.pre.i = load ptr, ptr @dynamic_hf, align 8
  br label %._crit_edge.i

._crit_edge.i:                                    ; preds = %._crit_edge.loopexit.i, %.preheader.i
  %3 = phi ptr [ %.pre.i, %._crit_edge.loopexit.i ], [ %1, %.preheader.i ]
  tail call void @proto_add_deregistered_data(ptr noundef %3)
  store ptr null, ptr @dynamic_hf, align 8
  store i32 0, ptr @dynamic_hf_size, align 4
  br label %15

.lr.ph.i:                                         ; preds = %.preheader.i, %.lr.ph.i
  %indvars.iv.i = phi i64 [ %indvars.iv.next.i, %.lr.ph.i ], [ 0, %.preheader.i ]
  %4 = load i32, ptr @proto_ldap, align 4
  %5 = load ptr, ptr @dynamic_hf, align 8
  %6 = getelementptr %struct.hf_register_info, ptr %5, i64 %indvars.iv.i
  %7 = load ptr, ptr %6, align 8
  %8 = load i32, ptr %7, align 4
  tail call void @proto_deregister_field(i32 noundef %4, i32 noundef %8)
  %9 = load ptr, ptr @dynamic_hf, align 8
  %10 = getelementptr %struct.hf_register_info, ptr %9, i64 %indvars.iv.i
  %11 = load ptr, ptr %10, align 8
  tail call void @g_free(ptr noundef %11)
  %indvars.iv.next.i = add nuw nsw i64 %indvars.iv.i, 1
  %12 = load i32, ptr @dynamic_hf_size, align 4
  %13 = zext i32 %12 to i64
  %14 = icmp samesign ult i64 %indvars.iv.next.i, %13
  br i1 %14, label %.lr.ph.i, label %._crit_edge.loopexit.i, !llvm.loop !8

15:                                               ; preds = %._crit_edge.i, %0
  %16 = load ptr, ptr @attribute_types_hash, align 8
  %.not5.i = icmp eq ptr %16, null
  br i1 %.not5.i, label %deregister_attribute_types.exit, label %17

17:                                               ; preds = %15
  tail call void @g_hash_table_destroy(ptr noundef nonnull %16)
  store ptr null, ptr @attribute_types_hash, align 8
  br label %deregister_attribute_types.exit

deregister_attribute_types.exit:                  ; preds = %15, %17
  %18 = load i32, ptr @num_attribute_types, align 4
  %.not = icmp eq i32 %18, 0
  br i1 %.not, label %56, label %19

19:                                               ; preds = %deregister_attribute_types.exit
  %20 = tail call ptr @g_hash_table_new(ptr noundef nonnull @g_str_hash, ptr noundef nonnull @g_str_equal)
  store ptr %20, ptr @attribute_types_hash, align 8
  %21 = load i32, ptr @num_attribute_types, align 4
  %22 = zext i32 %21 to i64
  %23 = tail call noalias ptr @g_malloc0_n(i64 noundef %22, i64 noundef 80) #16
  store ptr %23, ptr @dynamic_hf, align 8
  %24 = load i32, ptr @num_attribute_types, align 4
  store i32 %24, ptr @dynamic_hf_size, align 4
  %.not50 = icmp eq i32 %24, 0
  br i1 %.not50, label %._crit_edge, label %.lr.ph

._crit_edge.loopexit:                             ; preds = %.lr.ph
  %.pre = load ptr, ptr @dynamic_hf, align 8
  br label %._crit_edge

._crit_edge:                                      ; preds = %._crit_edge.loopexit, %19
  %25 = phi ptr [ %23, %19 ], [ %.pre, %._crit_edge.loopexit ]
  %.lcssa = phi i32 [ 0, %19 ], [ %53, %._crit_edge.loopexit ]
  %26 = load i32, ptr @proto_ldap, align 4
  tail call void @proto_register_field_array(i32 noundef %26, ptr noundef %25, i32 noundef %.lcssa)
  br label %56

.lr.ph:                                           ; preds = %19, %.lr.ph
  %indvars.iv = phi i64 [ %indvars.iv.next, %.lr.ph ], [ 0, %19 ]
  %27 = tail call noalias dereferenceable_or_null(4) ptr @g_malloc(i64 noundef 4) #17
  store i32 -1, ptr %27, align 4
  %28 = load ptr, ptr @attribute_types, align 8
  %29 = getelementptr %struct._attribute_type_t, ptr %28, i64 %indvars.iv
  %30 = load ptr, ptr %29, align 8
  %31 = tail call noalias ptr @g_strdup(ptr noundef %30)
  %32 = load ptr, ptr @dynamic_hf, align 8
  %33 = getelementptr %struct.hf_register_info, ptr %32, i64 %indvars.iv
  store ptr %27, ptr %33, align 8
  %34 = getelementptr %struct.hf_register_info, ptr %32, i64 %indvars.iv, i32 1
  store ptr %31, ptr %34, align 8
  %35 = tail call noalias ptr (ptr, ptr, ...) @wmem_strdup_printf(ptr noundef null, ptr noundef nonnull @.str.951, ptr noundef %31)
  %36 = load ptr, ptr @dynamic_hf, align 8
  %37 = getelementptr %struct.hf_register_info, ptr %36, i64 %indvars.iv, i32 1, i32 1
  store ptr %35, ptr %37, align 8
  %38 = getelementptr %struct.hf_register_info, ptr %36, i64 %indvars.iv, i32 1, i32 2
  store i32 26, ptr %38, align 8
  %39 = getelementptr %struct.hf_register_info, ptr %36, i64 %indvars.iv, i32 1, i32 3
  tail call void @llvm.memset.p0.i64(ptr noundef align 4 dereferenceable(20) %39, i8 0, i64 20, i1 false)
  %40 = load ptr, ptr @attribute_types, align 8
  %41 = getelementptr %struct._attribute_type_t, ptr %40, i64 %indvars.iv, i32 1
  %42 = load ptr, ptr %41, align 8
  %43 = tail call noalias ptr @g_strdup(ptr noundef %42)
  %44 = load ptr, ptr @dynamic_hf, align 8
  %45 = getelementptr %struct.hf_register_info, ptr %44, i64 %indvars.iv, i32 1, i32 6
  store ptr %43, ptr %45, align 8
  %46 = getelementptr %struct.hf_register_info, ptr %44, i64 %indvars.iv, i32 1, i32 7
  store i32 -1, ptr %46, align 8
  %47 = getelementptr %struct.hf_register_info, ptr %44, i64 %indvars.iv, i32 1, i32 8
  store i32 0, ptr %47, align 4
  %48 = getelementptr %struct.hf_register_info, ptr %44, i64 %indvars.iv, i32 1, i32 9
  store i32 0, ptr %48, align 8
  %49 = getelementptr %struct.hf_register_info, ptr %44, i64 %indvars.iv, i32 1, i32 10
  store i32 -1, ptr %49, align 4
  %50 = getelementptr %struct.hf_register_info, ptr %44, i64 %indvars.iv, i32 1, i32 11
  store ptr null, ptr %50, align 8
  %51 = load ptr, ptr @attribute_types_hash, align 8
  %52 = tail call i32 @g_hash_table_insert(ptr noundef %51, ptr noundef %31, ptr noundef %27)
  %indvars.iv.next = add nuw nsw i64 %indvars.iv, 1
  %53 = load i32, ptr @dynamic_hf_size, align 4
  %54 = zext i32 %53 to i64
  %55 = icmp samesign ult i64 %indvars.iv.next, %54
  br i1 %55, label %.lr.ph, label %._crit_edge.loopexit, !llvm.loop !10

56:                                               ; preds = %._crit_edge, %deregister_attribute_types.exit
  ret void
}